; ModuleID = '24/1260.c'
source_filename = "24/1260.c"
target datalayout = "e-m:e-p270:32:32-p271:32:32-p272:64:64-i64:64-f80:128-n8:16:32:64-S128"
target triple = "x86_64-pc-linux-gnu"

@.str = private unnamed_addr constant [3 x i8] c"%s\00", align 1
@.str.1 = private unnamed_addr constant [4 x i8] c"%s\0A\00", align 1

; Function Attrs: noinline nounwind uwtable
define dso_local i32 @main() #0 {
  %1 = alloca i32, align 4
  %2 = alloca i32, align 4
  %3 = alloca i32, align 4
  %4 = alloca i32, align 4
  %5 = alloca i32, align 4
  %6 = alloca [50 x [100 x i8]], align 16
  %7 = alloca [50 x i32], align 16
  %8 = alloca i32, align 4
  %9 = alloca [50 x i8], align 16
  store i32 0, i32* %1, align 4
  store i32 1, i32* %4, align 4
  store i32 0, i32* %2, align 4
  br label %10

10:                                               ; preds = %30, %0
  %11 = load i32, i32* %2, align 4
  %12 = icmp slt i32 %11, 50
  br i1 %12, label %13, label %33

13:                                               ; preds = %10
  %14 = load i32, i32* %2, align 4
  %15 = sext i32 %14 to i64
  %16 = getelementptr inbounds [50 x [100 x i8]], [50 x [100 x i8]]* %6, i64 0, i64 %15
  %17 = getelementptr inbounds [100 x i8], [100 x i8]* %16, i64 0, i64 0
  %18 = call i32 (i8*, ...) @__isoc99_scanf(i8* getelementptr inbounds ([3 x i8], [3 x i8]* @.str, i64 0, i64 0), i8* %17)
  %19 = call i32 @getchar()
  store i32 %19, i32* %5, align 4
  %20 = load i32, i32* %5, align 4
  %21 = icmp eq i32 %20, 10
  br i1 %21, label %22, label %23

22:                                               ; preds = %13
  br label %33

23:                                               ; preds = %13
  %24 = load i32, i32* %5, align 4
  %25 = icmp eq i32 %24, 32
  br i1 %25, label %26, label %29

26:                                               ; preds = %23
  %27 = load i32, i32* %4, align 4
  %28 = add nsw i32 %27, 1
  store i32 %28, i32* %4, align 4
  br label %29

29:                                               ; preds = %26, %23
  br label %30

30:                                               ; preds = %29
  %31 = load i32, i32* %2, align 4
  %32 = add nsw i32 %31, 1
  store i32 %32, i32* %2, align 4
  br label %10

33:                                               ; preds = %22, %10
  store i32 0, i32* %2, align 4
  br label %34

34:                                               ; preds = %48, %33
  %35 = load i32, i32* %2, align 4
  %36 = load i32, i32* %4, align 4
  %37 = icmp slt i32 %35, %36
  br i1 %37, label %38, label %51

38:                                               ; preds = %34
  %39 = load i32, i32* %2, align 4
  %40 = sext i32 %39 to i64
  %41 = getelementptr inbounds [50 x [100 x i8]], [50 x [100 x i8]]* %6, i64 0, i64 %40
  %42 = getelementptr inbounds [100 x i8], [100 x i8]* %41, i64 0, i64 0
  %43 = call i64 @strlen(i8* %42) #4
  %44 = trunc i64 %43 to i32
  %45 = load i32, i32* %2, align 4
  %46 = sext i32 %45 to i64
  %47 = getelementptr inbounds [50 x i32], [50 x i32]* %7, i64 0, i64 %46
  store i32 %44, i32* %47, align 4
  br label %48

48:                                               ; preds = %38
  %49 = load i32, i32* %2, align 4
  %50 = add nsw i32 %49, 1
  store i32 %50, i32* %2, align 4
  br label %34

51:                                               ; preds = %34
  store i32 0, i32* %2, align 4
  br label %52

52:                                               ; preds = %121, %51
  %53 = load i32, i32* %2, align 4
  %54 = load i32, i32* %4, align 4
  %55 = icmp slt i32 %53, %54
  br i1 %55, label %56, label %124

56:                                               ; preds = %52
  store i32 0, i32* %3, align 4
  br label %57

57:                                               ; preds = %117, %56
  %58 = load i32, i32* %3, align 4
  %59 = load i32, i32* %4, align 4
  %60 = sub nsw i32 %59, 1
  %61 = load i32, i32* %2, align 4
  %62 = sub nsw i32 %60, %61
  %63 = icmp slt i32 %58, %62
  br i1 %63, label %64, label %120

64:                                               ; preds = %57
  %65 = load i32, i32* %3, align 4
  %66 = sext i32 %65 to i64
  %67 = getelementptr inbounds [50 x i32], [50 x i32]* %7, i64 0, i64 %66
  %68 = load i32, i32* %67, align 4
  %69 = load i32, i32* %3, align 4
  %70 = add nsw i32 %69, 1
  %71 = sext i32 %70 to i64
  %72 = getelementptr inbounds [50 x i32], [50 x i32]* %7, i64 0, i64 %71
  %73 = load i32, i32* %72, align 4
  %74 = icmp slt i32 %68, %73
  br i1 %74, label %75, label %116

75:                                               ; preds = %64
  %76 = load i32, i32* %3, align 4
  %77 = sext i32 %76 to i64
  %78 = getelementptr inbounds [50 x i32], [50 x i32]* %7, i64 0, i64 %77
  %79 = load i32, i32* %78, align 4
  store i32 %79, i32* %8, align 4
  %80 = getelementptr inbounds [50 x i8], [50 x i8]* %9, i64 0, i64 0
  %81 = load i32, i32* %3, align 4
  %82 = sext i32 %81 to i64
  %83 = getelementptr inbounds [50 x [100 x i8]], [50 x [100 x i8]]* %6, i64 0, i64 %82
  %84 = getelementptr inbounds [100 x i8], [100 x i8]* %83, i64 0, i64 0
  %85 = call i8* @strcpy(i8* %80, i8* %84) #5
  %86 = load i32, i32* %3, align 4
  %87 = add nsw i32 %86, 1
  %88 = sext i32 %87 to i64
  %89 = getelementptr inbounds [50 x i32], [50 x i32]* %7, i64 0, i64 %88
  %90 = load i32, i32* %89, align 4
  %91 = load i32, i32* %3, align 4
  %92 = sext i32 %91 to i64
  %93 = getelementptr inbounds [50 x i32], [50 x i32]* %7, i64 0, i64 %92
  store i32 %90, i32* %93, align 4
  %94 = load i32, i32* %3, align 4
  %95 = sext i32 %94 to i64
  %96 = getelementptr inbounds [50 x [100 x i8]], [50 x [100 x i8]]* %6, i64 0, i64 %95
  %97 = getelementptr inbounds [100 x i8], [100 x i8]* %96, i64 0, i64 0
  %98 = load i32, i32* %3, align 4
  %99 = add nsw i32 %98, 1
  %100 = sext i32 %99 to i64
  %101 = getelementptr inbounds [50 x [100 x i8]], [50 x [100 x i8]]* %6, i64 0, i64 %100
  %102 = getelementptr inbounds [100 x i8], [100 x i8]* %101, i64 0, i64 0
  %103 = call i8* @strcpy(i8* %97, i8* %102) #5
  %104 = load i32, i32* %8, align 4
  %105 = load i32, i32* %3, align 4
  %106 = add nsw i32 %105, 1
  %107 = sext i32 %106 to i64
  %108 = getelementptr inbounds [50 x i32], [50 x i32]* %7, i64 0, i64 %107
  store i32 %104, i32* %108, align 4
  %109 = load i32, i32* %3, align 4
  %110 = add nsw i32 %109, 1
  %111 = sext i32 %110 to i64
  %112 = getelementptr inbounds [50 x [100 x i8]], [50 x [100 x i8]]* %6, i64 0, i64 %111
  %113 = getelementptr inbounds [100 x i8], [100 x i8]* %112, i64 0, i64 0
  %114 = getelementptr inbounds [50 x i8], [50 x i8]* %9, i64 0, i64 0
  %115 = call i8* @strcpy(i8* %113, i8* %114) #5
  br label %116

116:                                              ; preds = %75, %64
  br label %117

117:                                              ; preds = %116
  %118 = load i32, i32* %3, align 4
  %119 = add nsw i32 %118, 1
  store i32 %119, i32* %3, align 4
  br label %57

120:                                              ; preds = %57
  br label %121

121:                                              ; preds = %120
  %122 = load i32, i32* %2, align 4
  %123 = add nsw i32 %122, 1
  store i32 %123, i32* %2, align 4
  br label %52

124:                                              ; preds = %52
  %125 = getelementptr inbounds [50 x [100 x i8]], [50 x [100 x i8]]* %6, i64 0, i64 0
  %126 = getelementptr inbounds [100 x i8], [100 x i8]* %125, i64 0, i64 0
  %127 = call i32 (i8*, ...) @printf(i8* getelementptr inbounds ([4 x i8], [4 x i8]* @.str.1, i64 0, i64 0), i8* %126)
  store i32 0, i32* %2, align 4
  br label %128

128:                                              ; preds = %197, %124
  %129 = load i32, i32* %2, align 4
  %130 = load i32, i32* %4, align 4
  %131 = icmp slt i32 %129, %130
  br i1 %131, label %132, label %200

132:                                              ; preds = %128
  store i32 0, i32* %3, align 4
  br label %133

133:                                              ; preds = %193, %132
  %134 = load i32, i32* %3, align 4
  %135 = load i32, i32* %4, align 4
  %136 = sub nsw i32 %135, 1
  %137 = load i32, i32* %2, align 4
  %138 = sub nsw i32 %136, %137
  %139 = icmp slt i32 %134, %138
  br i1 %139, label %140, label %196

140:                                              ; preds = %133
  %141 = load i32, i32* %3, align 4
  %142 = sext i32 %141 to i64
  %143 = getelementptr inbounds [50 x i32], [50 x i32]* %7, i64 0, i64 %142
  %144 = load i32, i32* %143, align 4
  %145 = load i32, i32* %3, align 4
  %146 = add nsw i32 %145, 1
  %147 = sext i32 %146 to i64
  %148 = getelementptr inbounds [50 x i32], [50 x i32]* %7, i64 0, i64 %147
  %149 = load i32, i32* %148, align 4
  %150 = icmp sgt i32 %144, %149
  br i1 %150, label %151, label %192

151:                                              ; preds = %140
  %152 = load i32, i32* %3, align 4
  %153 = sext i32 %152 to i64
  %154 = getelementptr inbounds [50 x i32], [50 x i32]* %7, i64 0, i64 %153
  %155 = load i32, i32* %154, align 4
  store i32 %155, i32* %8, align 4
  %156 = getelementptr inbounds [50 x i8], [50 x i8]* %9, i64 0, i64 0
  %157 = load i32, i32* %3, align 4
  %158 = sext i32 %157 to i64
  %159 = getelementptr inbounds [50 x [100 x i8]], [50 x [100 x i8]]* %6, i64 0, i64 %158
  %160 = getelementptr inbounds [100 x i8], [100 x i8]* %159, i64 0, i64 0
  %161 = call i8* @strcpy(i8* %156, i8* %160) #5
  %162 = load i32, i32* %3, align 4
  %163 = add nsw i32 %162, 1
  %164 = sext i32 %163 to i64
  %165 = getelementptr inbounds [50 x i32], [50 x i32]* %7, i64 0, i64 %164
  %166 = load i32, i32* %165, align 4
  %167 = load i32, i32* %3, align 4
  %168 = sext i32 %167 to i64
  %169 = getelementptr inbounds [50 x i32], [50 x i32]* %7, i64 0, i64 %168
  store i32 %166, i32* %169, align 4
  %170 = load i32, i32* %3, align 4
  %171 = sext i32 %170 to i64
  %172 = getelementptr inbounds [50 x [100 x i8]], [50 x [100 x i8]]* %6, i64 0, i64 %171
  %173 = getelementptr inbounds [100 x i8], [100 x i8]* %172, i64 0, i64 0
  %174 = load i32, i32* %3, align 4
  %175 = add nsw i32 %174, 1
  %176 = sext i32 %175 to i64
  %177 = getelementptr inbounds [50 x [100 x i8]], [50 x [100 x i8]]* %6, i64 0, i64 %176
  %178 = getelementptr inbounds [100 x i8], [100 x i8]* %177, i64 0, i64 0
  %179 = call i8* @strcpy(i8* %173, i8* %178) #5
  %180 = load i32, i32* %8, align 4
  %181 = load i32, i32* %3, align 4
  %182 = add nsw i32 %181, 1
  %183 = sext i32 %182 to i64
  %184 = getelementptr inbounds [50 x i32], [50 x i32]* %7, i64 0, i64 %183
  store i32 %180, i32* %184, align 4
  %185 = load i32, i32* %3, align 4
  %186 = add nsw i32 %185, 1
  %187 = sext i32 %186 to i64
  %188 = getelementptr inbounds [50 x [100 x i8]], [50 x [100 x i8]]* %6, i64 0, i64 %187
  %189 = getelementptr inbounds [100 x i8], [100 x i8]* %188, i64 0, i64 0
  %190 = getelementptr inbounds [50 x i8], [50 x i8]* %9, i64 0, i64 0
  %191 = call i8* @strcpy(i8* %189, i8* %190) #5
  br label %192

192:                                              ; preds = %151, %140
  br label %193

193:                                              ; preds = %192
  %194 = load i32, i32* %3, align 4
  %195 = add nsw i32 %194, 1
  store i32 %195, i32* %3, align 4
  br label %133

196:                                              ; preds = %133
  br label %197

197:                                              ; preds = %196
  %198 = load i32, i32* %2, align 4
  %199 = add nsw i32 %198, 1
  store i32 %199, i32* %2, align 4
  br label %128

200:                                              ; preds = %128
  %201 = getelementptr inbounds [50 x [100 x i8]], [50 x [100 x i8]]* %6, i64 0, i64 0
  %202 = getelementptr inbounds [100 x i8], [100 x i8]* %201, i64 0, i64 0
  %203 = call i32 (i8*, ...) @printf(i8* getelementptr inbounds ([4 x i8], [4 x i8]* @.str.1, i64 0, i64 0), i8* %202)
  ret i32 0
}

declare dso_local i32 @__isoc99_scanf(i8*, ...) #1

declare dso_local i32 @getchar() #1

; Function Attrs: nounwind readonly
declare dso_local i64 @strlen(i8*) #2

; Function Attrs: nounwind
declare dso_local i8* @strcpy(i8*, i8*) #3

declare dso_local i32 @printf(i8*, ...) #1


!llvm.module.flags = !{!0}
!llvm.ident = !{!1}

!0 = !{i32 1, !"wchar_size", i32 4}
!1 = !{!"clang version 10.0.0-4ubuntu1 "}
